(lp0
(iPyRSS2Gen
RSSItem
p1
(dp2
S'description'
p3
S'SketchEl is an interactive chemical molecule sketching tool, designed for quick and simple entry of structures. The feature set is limited to those necessary to enter a single chemical species, in a form that might be used in a cheminformatic database, representing each atom and bond as a part of a labelled graph.\nThis software is Open Source.'
p4
sS'pubDate'
p5
cdatetime
datetime
p6
(S'\x07\xd6\x08\x1f\x10\x0f\r\x03\xa5\t'
p7
tp8
Rp9
sS'author'
p10
NsS'title'
p11
S'SketchEl'
p12
sS'comments'
p13
NsS'source'
p14
NsS'link'
p15
S'http://sketchel.sourceforge.net/'
p16
sS'guid'
p17
NsS'enclosure'
p18
NsS'categories'
p19
(lp20
sba.